Certificate:
    Data:
        Version: 3 (0x2)
        Serial Number: 4107 (0x100b)
    Signature Algorithm: ecdsa-with-SHA256
        Issuer: CN=sros2testCA
        Validity
            Not Before: Jun 10 08:36:05 2018 GMT
            Not After : Jun  7 08:36:05 2028 GMT
        Subject: CN=listener_py
        Subject Public Key Info:
            Public Key Algorithm: id-ecPublicKey
                Public-Key: (256 bit)
                pub: 
                    04:72:c1:3c:f7:de:e8:bd:8e:ee:af:ec:91:cf:7f:
                    05:88:0e:ff:8b:7d:93:19:fe:26:c8:2d:9b:3e:25:
                    56:bd:ae:b9:23:76:39:33:f6:33:65:27:a8:ca:28:
                    95:95:2c:dc:f7:22:c9:c9:0e:e5:68:d1:27:14:bf:
                    04:f7:c8:b4:aa
                ASN1 OID: prime256v1
                NIST CURVE: P-256
        X509v3 extensions:
            X509v3 Basic Constraints: 
                CA:FALSE
    Signature Algorithm: ecdsa-with-SHA256
         30:45:02:21:00:ac:90:8a:55:00:48:44:c3:28:59:1e:4f:81:
         e3:db:d3:72:14:46:3b:1f:48:cd:cf:b1:f8:6f:3b:c5:f9:6a:
         c3:02:20:08:c5:ef:d8:17:5d:bf:ef:32:b8:3f:3c:56:e1:87:
         13:f7:f6:90:4b:7a:a4:cb:25:e5:c5:78:c6:65:18:a1:41
-----BEGIN CERTIFICATE-----
MIIBKDCBz6ADAgECAgIQCzAKBggqhkjOPQQDAjAWMRQwEgYDVQQDDAtzcm9zMnRl
c3RDQTAeFw0xODA2MTAwODM2MDVaFw0yODA2MDcwODM2MDVaMBYxFDASBgNVBAMM
C2xpc3RlbmVyX3B5MFkwEwYHKoZIzj0CAQYIKoZIzj0DAQcDQgAEcsE8997ovY7u
r+yRz38FiA7/i32TGf4myC2bPiVWva65I3Y5M/YzZSeoyiiVlSzc9yLJyQ7laNEn
FL8E98i0qqMNMAswCQYDVR0TBAIwADAKBggqhkjOPQQDAgNIADBFAiEArJCKVQBI
RMMoWR5PgePb03IURjsfSM3PsfhvO8X5asMCIAjF79gXXb/vMrg/PFbhhxP39pBL
eqTLJeXFeMZlGKFB
-----END CERTIFICATE-----
