Certificate:
    Data:
        Version: 3 (0x2)
        Serial Number: 4101 (0x1005)
    Signature Algorithm: ecdsa-with-SHA256
        Issuer: CN=sros2testCA
        Validity
            Not Before: Jun  6 21:19:15 2018 GMT
            Not After : Jun  3 21:19:15 2028 GMT
        Subject: CN=talker
        Subject Public Key Info:
            Public Key Algorithm: id-ecPublicKey
                Public-Key: (256 bit)
                pub: 
                    04:36:1c:67:01:0a:49:6e:d3:0b:9b:99:a7:2d:e8:
                    cd:cb:d8:21:25:70:40:7e:8c:4c:8a:ac:c0:aa:50:
                    bb:09:a2:54:f1:43:e6:78:be:c4:c6:ff:3f:3b:20:
                    2e:41:7b:ba:1a:12:23:de:c3:dd:bb:25:6b:d2:17:
                    89:67:c0:5d:7c
                ASN1 OID: prime256v1
                NIST CURVE: P-256
        X509v3 extensions:
            X509v3 Basic Constraints: 
                CA:FALSE
    Signature Algorithm: ecdsa-with-SHA256
         30:44:02:20:48:63:8f:5d:cc:74:14:42:e4:1f:d8:97:04:3a:
         e0:b1:0b:e5:36:90:e8:6a:1d:c1:be:74:34:ed:1d:78:b3:ed:
         02:20:3a:dd:04:85:3f:46:b6:46:89:9c:1e:29:5d:b6:6b:e0:
         bd:24:9d:52:ee:8e:e2:82:d9:65:0e:c0:23:cb:15:6d
-----BEGIN CERTIFICATE-----
MIIBIjCByqADAgECAgIQBTAKBggqhkjOPQQDAjAWMRQwEgYDVQQDDAtzcm9zMnRl
c3RDQTAeFw0xODA2MDYyMTE5MTVaFw0yODA2MDMyMTE5MTVaMBExDzANBgNVBAMM
BnRhbGtlcjBZMBMGByqGSM49AgEGCCqGSM49AwEHA0IABDYcZwEKSW7TC5uZpy3o
zcvYISVwQH6MTIqswKpQuwmiVPFD5ni+xMb/PzsgLkF7uhoSI97D3bsla9IXiWfA
XXyjDTALMAkGA1UdEwQCMAAwCgYIKoZIzj0EAwIDRwAwRAIgSGOPXcx0FELkH9iX
BDrgsQvlNpDoah3BvnQ07R14s+0CIDrdBIU/RrZGiZweKV22a+C9JJ1S7o7igtll
DsAjyxVt
-----END CERTIFICATE-----
