Certificate:
    Data:
        Version: 3 (0x2)
        Serial Number: 4098 (0x1002)
    Signature Algorithm: ecdsa-with-SHA256
        Issuer: CN=sros2testCA
        Validity
            Not Before: Jun  6 20:37:15 2018 GMT
            Not After : Jun  3 20:37:15 2028 GMT
        Subject: CN=transform_listener_impl
        Subject Public Key Info:
            Public Key Algorithm: id-ecPublicKey
                Public-Key: (256 bit)
                pub: 
                    04:cd:f8:fe:5e:a4:af:d3:06:dc:4b:41:9d:d7:e4:
                    0e:b3:de:dd:76:31:d7:17:20:da:16:aa:0d:23:6b:
                    40:b4:04:fb:35:25:41:db:90:8f:3c:92:2d:2f:bf:
                    ca:50:e7:69:01:ad:26:53:cd:40:bb:06:77:e7:36:
                    bb:55:9c:77:a5
                ASN1 OID: prime256v1
                NIST CURVE: P-256
        X509v3 extensions:
            X509v3 Basic Constraints: 
                CA:FALSE
    Signature Algorithm: ecdsa-with-SHA256
         30:44:02:20:57:14:51:e0:db:26:1b:62:a5:af:9c:1b:98:e7:
         94:55:cf:b4:d2:ae:0f:b3:e5:7c:c9:32:1c:a2:75:3d:01:bf:
         02:20:44:08:c4:c8:d1:b0:68:a7:d3:7c:fe:cd:6c:99:d9:f5:
         9b:ba:0d:66:bf:44:2a:01:ee:14:99:1a:a7:8c:81:c0
-----BEGIN CERTIFICATE-----
MIIBMzCB26ADAgECAgIQAjAKBggqhkjOPQQDAjAWMRQwEgYDVQQDDAtzcm9zMnRl
c3RDQTAeFw0xODA2MDYyMDM3MTVaFw0yODA2MDMyMDM3MTVaMCIxIDAeBgNVBAMM
F3RyYW5zZm9ybV9saXN0ZW5lcl9pbXBsMFkwEwYHKoZIzj0CAQYIKoZIzj0DAQcD
QgAEzfj+XqSv0wbcS0Gd1+QOs97ddjHXFyDaFqoNI2tAtAT7NSVB25CPPJItL7/K
UOdpAa0mU81AuwZ35za7VZx3paMNMAswCQYDVR0TBAIwADAKBggqhkjOPQQDAgNH
ADBEAiBXFFHg2yYbYqWvnBuY55RVz7TSrg+z5XzJMhyidT0BvwIgRAjEyNGwaKfT
fP7NbJnZ9Zu6DWa/RCoB7hSZGqeMgcA=
-----END CERTIFICATE-----
