Certificate:
    Data:
        Version: 3 (0x2)
        Serial Number: 4096 (0x1000)
    Signature Algorithm: ecdsa-with-SHA256
        Issuer: CN=sros2testCA
        Validity
            Not Before: Jun  6 20:36:37 2018 GMT
            Not After : Jun  3 20:36:37 2028 GMT
        Subject: CN=rviz
        Subject Public Key Info:
            Public Key Algorithm: id-ecPublicKey
                Public-Key: (256 bit)
                pub: 
                    04:29:be:90:b3:0d:91:a9:f8:02:93:fb:22:92:ad:
                    d5:ce:80:e8:f4:5c:c4:78:e0:3e:86:ed:22:e0:43:
                    8f:48:0a:56:22:d3:0a:be:0a:ba:01:e6:05:b1:2c:
                    cf:90:e3:72:d3:08:fe:15:99:93:84:9c:1b:f3:ae:
                    f1:7e:1f:5a:e6
                ASN1 OID: prime256v1
                NIST CURVE: P-256
        X509v3 extensions:
            X509v3 Basic Constraints: 
                CA:FALSE
    Signature Algorithm: ecdsa-with-SHA256
         30:45:02:20:7a:29:4f:9b:3b:20:7d:96:e7:58:f9:c3:de:45:
         1e:75:c1:9a:c5:53:6c:a7:ed:f6:a3:71:15:46:2b:17:31:09:
         02:21:00:86:00:4e:18:ad:52:d6:07:45:71:38:ff:7b:ed:fe:
         f2:cb:9b:f6:20:f8:3d:e3:f9:5e:da:9c:bb:19:0e:d5:d3
-----BEGIN CERTIFICATE-----
MIIBITCByKADAgECAgIQADAKBggqhkjOPQQDAjAWMRQwEgYDVQQDDAtzcm9zMnRl
c3RDQTAeFw0xODA2MDYyMDM2MzdaFw0yODA2MDMyMDM2MzdaMA8xDTALBgNVBAMM
BHJ2aXowWTATBgcqhkjOPQIBBggqhkjOPQMBBwNCAAQpvpCzDZGp+AKT+yKSrdXO
gOj0XMR44D6G7SLgQ49IClYi0wq+CroB5gWxLM+Q43LTCP4VmZOEnBvzrvF+H1rm
ow0wCzAJBgNVHRMEAjAAMAoGCCqGSM49BAMCA0gAMEUCIHopT5s7IH2W51j5w95F
HnXBmsVTbKft9qNxFUYrFzEJAiEAhgBOGK1S1gdFcTj/e+3+8sub9iD4PeP5Xtqc
uxkO1dM=
-----END CERTIFICATE-----
