Certificate:
    Data:
        Version: 3 (0x2)
        Serial Number: 4097 (0x1001)
    Signature Algorithm: ecdsa-with-SHA256
        Issuer: CN=sros2testCA
        Validity
            Not Before: Jun  6 20:36:52 2018 GMT
            Not After : Jun  3 20:36:52 2028 GMT
        Subject: CN=display_node
        Subject Public Key Info:
            Public Key Algorithm: id-ecPublicKey
                Public-Key: (256 bit)
                pub: 
                    04:bd:a5:6c:e7:82:80:29:4b:b9:9b:94:a4:a9:ab:
                    53:4a:ee:6d:1f:13:f1:7c:c7:b6:c2:78:9c:10:2a:
                    8d:b1:54:e3:5b:32:42:b9:32:ae:3d:2a:70:ee:ba:
                    48:73:eb:1a:09:35:bc:b0:6e:b1:44:ef:7d:21:09:
                    2b:7b:29:af:65
                ASN1 OID: prime256v1
                NIST CURVE: P-256
        X509v3 extensions:
            X509v3 Basic Constraints: 
                CA:FALSE
    Signature Algorithm: ecdsa-with-SHA256
         30:46:02:21:00:96:24:f9:ac:9e:68:2d:9f:d5:ac:ce:c3:da:
         11:d1:56:6b:10:78:9a:8e:7e:a6:6e:0b:b7:65:97:a4:d9:5b:
         d8:02:21:00:ae:d7:ff:f6:9e:96:48:44:1e:e1:97:31:20:13:
         ce:94:88:43:57:19:a6:7d:ff:dd:d5:b1:1d:bd:15:24:cf:ea
-----BEGIN CERTIFICATE-----
MIIBKjCB0KADAgECAgIQATAKBggqhkjOPQQDAjAWMRQwEgYDVQQDDAtzcm9zMnRl
c3RDQTAeFw0xODA2MDYyMDM2NTJaFw0yODA2MDMyMDM2NTJaMBcxFTATBgNVBAMM
DGRpc3BsYXlfbm9kZTBZMBMGByqGSM49AgEGCCqGSM49AwEHA0IABL2lbOeCgClL
uZuUpKmrU0rubR8T8XzHtsJ4nBAqjbFU41syQrkyrj0qcO66SHPrGgk1vLBusUTv
fSEJK3spr2WjDTALMAkGA1UdEwQCMAAwCgYIKoZIzj0EAwIDSQAwRgIhAJYk+aye
aC2f1azOw9oR0VZrEHiajn6mbgu3ZZek2VvYAiEArtf/9p6WSEQe4ZcxIBPOlIhD
Vxmmff/d1bEdvRUkz+o=
-----END CERTIFICATE-----
