Certificate:
    Data:
        Version: 3 (0x2)
        Serial Number: 4099 (0x1003)
    Signature Algorithm: ecdsa-with-SHA256
        Issuer: CN=sros2testCA
        Validity
            Not Before: Jun  6 20:37:32 2018 GMT
            Not After : Jun  3 20:37:32 2028 GMT
        Subject: CN=MarkerPublisher
        Subject Public Key Info:
            Public Key Algorithm: id-ecPublicKey
                Public-Key: (256 bit)
                pub: 
                    04:2d:68:73:fb:f5:63:09:b1:17:b2:d3:a9:28:23:
                    d2:ab:f2:9e:af:40:ab:b6:c1:ae:b3:62:33:3f:90:
                    4b:f2:d4:2d:ff:31:4c:ce:ac:b6:b9:ea:6c:00:e9:
                    65:7b:21:ed:dd:08:49:d4:0c:e9:75:f9:ae:8a:03:
                    8f:0a:76:ee:86
                ASN1 OID: prime256v1
                NIST CURVE: P-256
        X509v3 extensions:
            X509v3 Basic Constraints: 
                CA:FALSE
    Signature Algorithm: ecdsa-with-SHA256
         30:45:02:21:00:a2:0c:a2:ba:e6:e0:90:27:a8:c7:d5:1c:2f:
         da:20:a4:68:b3:65:12:45:ca:10:e4:84:b8:f7:11:7f:cb:ea:
         6f:02:20:4c:fb:7d:ba:a0:d2:b5:89:59:c6:4c:af:4d:06:9d:
         ad:f0:1e:42:56:c5:2c:0e:86:2d:7f:76:4a:32:a5:22:82
-----BEGIN CERTIFICATE-----
MIIBLDCB06ADAgECAgIQAzAKBggqhkjOPQQDAjAWMRQwEgYDVQQDDAtzcm9zMnRl
c3RDQTAeFw0xODA2MDYyMDM3MzJaFw0yODA2MDMyMDM3MzJaMBoxGDAWBgNVBAMM
D01hcmtlclB1Ymxpc2hlcjBZMBMGByqGSM49AgEGCCqGSM49AwEHA0IABC1oc/v1
YwmxF7LTqSgj0qvynq9Aq7bBrrNiMz+QS/LULf8xTM6strnqbADpZXsh7d0ISdQM
6XX5rooDjwp27oajDTALMAkGA1UdEwQCMAAwCgYIKoZIzj0EAwIDSAAwRQIhAKIM
orrm4JAnqMfVHC/aIKRos2USRcoQ5IS49xF/y+pvAiBM+326oNK1iVnGTK9NBp2t
8B5CVsUsDoYtf3ZKMqUigg==
-----END CERTIFICATE-----
