Certificate:
    Data:
        Version: 3 (0x2)
        Serial Number: 4100 (0x1004)
    Signature Algorithm: ecdsa-with-SHA256
        Issuer: CN=sros2testCA
        Validity
            Not Before: Jun  6 20:44:14 2018 GMT
            Not After : Jun  3 20:44:14 2028 GMT
        Subject: CN=static_transform_publisher
        Subject Public Key Info:
            Public Key Algorithm: id-ecPublicKey
                Public-Key: (256 bit)
                pub: 
                    04:84:c3:9d:a9:a2:3b:71:04:d6:c8:df:03:98:27:
                    af:62:82:70:83:b3:63:8b:6d:ff:d9:45:e5:4c:e4:
                    bc:9c:e4:c3:a2:0e:13:94:fb:f8:88:63:5e:c1:b4:
                    cf:d6:8a:e0:77:a1:5d:2f:58:ae:dd:24:1b:9e:f8:
                    0e:3c:2a:79:b2
                ASN1 OID: prime256v1
                NIST CURVE: P-256
        X509v3 extensions:
            X509v3 Basic Constraints: 
                CA:FALSE
    Signature Algorithm: ecdsa-with-SHA256
         30:46:02:21:00:d3:15:b0:80:7f:8a:81:c8:67:fd:c2:32:41:
         2a:26:79:c5:c9:fb:f8:82:dc:dc:75:73:ee:e1:96:84:44:a8:
         3b:02:21:00:fe:b9:73:4d:2d:44:99:11:20:c7:8f:f6:55:6e:
         af:95:15:ff:1e:c6:99:4a:ed:f1:0b:3f:2e:f7:97:3c:a4:3f
-----BEGIN CERTIFICATE-----
MIIBODCB3qADAgECAgIQBDAKBggqhkjOPQQDAjAWMRQwEgYDVQQDDAtzcm9zMnRl
c3RDQTAeFw0xODA2MDYyMDQ0MTRaFw0yODA2MDMyMDQ0MTRaMCUxIzAhBgNVBAMM
GnN0YXRpY190cmFuc2Zvcm1fcHVibGlzaGVyMFkwEwYHKoZIzj0CAQYIKoZIzj0D
AQcDQgAEhMOdqaI7cQTWyN8DmCevYoJwg7Nji23/2UXlTOS8nOTDog4TlPv4iGNe
wbTP1orgd6FdL1iu3SQbnvgOPCp5sqMNMAswCQYDVR0TBAIwADAKBggqhkjOPQQD
AgNJADBGAiEA0xWwgH+Kgchn/cIyQSomecXJ+/iC3Nx1c+7hloREqDsCIQD+uXNN
LUSZESDHj/ZVbq+VFf8explK7fELPy73lzykPw==
-----END CERTIFICATE-----
