Certificate:
    Data:
        Version: 3 (0x2)
        Serial Number: 4103 (0x1007)
    Signature Algorithm: ecdsa-with-SHA256
        Issuer: CN=sros2testCA
        Validity
            Not Before: Jun  6 21:24:27 2018 GMT
            Not After : Jun  3 21:24:27 2028 GMT
        Subject: CN=cam2image
        Subject Public Key Info:
            Public Key Algorithm: id-ecPublicKey
                Public-Key: (256 bit)
                pub: 
                    04:2a:6d:0c:9f:55:bd:ae:22:a8:29:78:a5:3a:44:
                    64:7e:74:ce:65:ab:c2:51:99:9f:96:ad:2f:04:57:
                    6e:f4:73:e2:10:d0:e6:0d:dc:d7:a7:d0:ef:e9:1b:
                    14:32:02:6f:4d:f9:74:fa:eb:e8:80:4b:4b:cd:51:
                    db:9e:c1:cf:7f
                ASN1 OID: prime256v1
                NIST CURVE: P-256
        X509v3 extensions:
            X509v3 Basic Constraints: 
                CA:FALSE
    Signature Algorithm: ecdsa-with-SHA256
         30:44:02:20:04:ef:56:16:b4:2a:e9:69:1e:0d:df:dc:d9:fc:
         86:b5:13:7a:9a:fc:f0:ef:9f:bc:66:81:ea:35:24:a9:94:a8:
         02:20:0e:74:74:91:e4:39:e4:78:f4:9b:2c:28:70:b5:ae:f5:
         89:8e:cc:03:f0:12:8d:90:47:1a:89:5a:ba:c3:f4:6a
-----BEGIN CERTIFICATE-----
MIIBJTCBzaADAgECAgIQBzAKBggqhkjOPQQDAjAWMRQwEgYDVQQDDAtzcm9zMnRl
c3RDQTAeFw0xODA2MDYyMTI0MjdaFw0yODA2MDMyMTI0MjdaMBQxEjAQBgNVBAMM
CWNhbTJpbWFnZTBZMBMGByqGSM49AgEGCCqGSM49AwEHA0IABCptDJ9Vva4iqCl4
pTpEZH50zmWrwlGZn5atLwRXbvRz4hDQ5g3c16fQ7+kbFDICb035dPrr6IBLS81R
257Bz3+jDTALMAkGA1UdEwQCMAAwCgYIKoZIzj0EAwIDRwAwRAIgBO9WFrQq6Wke
Dd/c2fyGtRN6mvzw75+8ZoHqNSSplKgCIA50dJHkOeR49JssKHC1rvWJjswD8BKN
kEcaiVq6w/Rq
-----END CERTIFICATE-----
