Certificate:
    Data:
        Version: 3 (0x2)
        Serial Number: 4104 (0x1008)
    Signature Algorithm: ecdsa-with-SHA256
        Issuer: CN=sros2testCA
        Validity
            Not Before: Jun  9 21:21:22 2018 GMT
            Not After : Jun  6 21:21:22 2028 GMT
        Subject: CN=MarkerTFPublisher
        Subject Public Key Info:
            Public Key Algorithm: id-ecPublicKey
                Public-Key: (256 bit)
                pub: 
                    04:bb:63:0b:ff:8d:6e:a1:54:03:24:41:b9:12:69:
                    13:69:12:65:45:36:09:ef:72:a4:07:39:76:63:ab:
                    73:44:fd:12:fe:cf:3d:2b:f3:da:b8:2b:93:1b:af:
                    da:f1:47:99:86:21:2b:fb:22:0d:26:c5:01:56:1c:
                    3d:ef:b1:16:28
                ASN1 OID: prime256v1
                NIST CURVE: P-256
        X509v3 extensions:
            X509v3 Basic Constraints: 
                CA:FALSE
    Signature Algorithm: ecdsa-with-SHA256
         30:45:02:20:4c:da:81:3b:6a:d2:1f:18:ad:c4:c3:ae:47:bb:
         5e:46:67:85:9e:e6:c7:33:6e:54:bd:9f:0a:57:b1:01:fc:70:
         02:21:00:d3:80:28:b9:cb:4f:9b:cb:16:2e:ce:f6:67:f6:af:
         5e:aa:3c:51:e7:d2:eb:7e:8f:4d:d8:ef:1e:1c:fe:31:97
-----BEGIN CERTIFICATE-----
MIIBLjCB1aADAgECAgIQCDAKBggqhkjOPQQDAjAWMRQwEgYDVQQDDAtzcm9zMnRl
c3RDQTAeFw0xODA2MDkyMTIxMjJaFw0yODA2MDYyMTIxMjJaMBwxGjAYBgNVBAMM
EU1hcmtlclRGUHVibGlzaGVyMFkwEwYHKoZIzj0CAQYIKoZIzj0DAQcDQgAEu2ML
/41uoVQDJEG5EmkTaRJlRTYJ73KkBzl2Y6tzRP0S/s89K/PauCuTG6/a8UeZhiEr
+yINJsUBVhw977EWKKMNMAswCQYDVR0TBAIwADAKBggqhkjOPQQDAgNIADBFAiBM
2oE7atIfGK3Ew65Hu15GZ4We5sczblS9nwpXsQH8cAIhANOAKLnLT5vLFi7O9mf2
r16qPFHn0ut+j03Y7x4c/jGX
-----END CERTIFICATE-----
