Certificate:
    Data:
        Version: 3 (0x2)
        Serial Number: 4105 (0x1009)
    Signature Algorithm: ecdsa-with-SHA256
        Issuer: CN=sros2testCA
        Validity
            Not Before: Jun 10 08:33:32 2018 GMT
            Not After : Jun  7 08:33:32 2028 GMT
        Subject: CN=talker_py
        Subject Public Key Info:
            Public Key Algorithm: id-ecPublicKey
                Public-Key: (256 bit)
                pub: 
                    04:cb:82:8c:d3:34:2b:0e:2d:12:43:fd:72:b2:2f:
                    f9:5c:3e:ab:bb:cb:a1:32:2d:05:55:5f:65:e2:64:
                    e6:a9:6a:a4:b5:95:2f:54:29:d1:25:b5:c9:c1:0f:
                    e9:18:4e:1e:f3:10:df:ec:53:47:8f:5e:06:8e:26:
                    4f:fc:da:09:d7
                ASN1 OID: prime256v1
                NIST CURVE: P-256
        X509v3 extensions:
            X509v3 Basic Constraints: 
                CA:FALSE
    Signature Algorithm: ecdsa-with-SHA256
         30:46:02:21:00:a5:b8:bb:91:ed:fb:a7:06:3f:74:47:bc:89:
         c4:ae:b5:c7:d4:63:4b:d4:c2:2e:16:f3:ec:f0:1d:5b:07:26:
         3b:02:21:00:c9:9f:88:1c:e2:1d:af:f5:3f:65:78:9f:02:41:
         ef:f0:20:4f:19:c8:08:ad:8f:ab:68:ef:2a:40:7e:4c:a6:3f
-----BEGIN CERTIFICATE-----
MIIBJzCBzaADAgECAgIQCTAKBggqhkjOPQQDAjAWMRQwEgYDVQQDDAtzcm9zMnRl
c3RDQTAeFw0xODA2MTAwODMzMzJaFw0yODA2MDcwODMzMzJaMBQxEjAQBgNVBAMM
CXRhbGtlcl9weTBZMBMGByqGSM49AgEGCCqGSM49AwEHA0IABMuCjNM0Kw4tEkP9
crIv+Vw+q7vLoTItBVVfZeJk5qlqpLWVL1Qp0SW1ycEP6RhOHvMQ3+xTR49eBo4m
T/zaCdejDTALMAkGA1UdEwQCMAAwCgYIKoZIzj0EAwIDSQAwRgIhAKW4u5Ht+6cG
P3RHvInErrXH1GNL1MIuFvPs8B1bByY7AiEAyZ+IHOIdr/U/ZXifAkHv8CBPGcgI
rY+raO8qQH5Mpj8=
-----END CERTIFICATE-----
