Certificate:
    Data:
        Version: 3 (0x2)
        Serial Number: 4102 (0x1006)
    Signature Algorithm: ecdsa-with-SHA256
        Issuer: CN=sros2testCA
        Validity
            Not Before: Jun  6 21:19:24 2018 GMT
            Not After : Jun  3 21:19:24 2028 GMT
        Subject: CN=listener
        Subject Public Key Info:
            Public Key Algorithm: id-ecPublicKey
                Public-Key: (256 bit)
                pub: 
                    04:1d:9c:94:3e:4f:d0:7e:8b:0a:cf:e8:d7:aa:94:
                    25:6b:f0:e0:54:b8:6e:86:cf:bc:71:10:55:14:ea:
                    a2:ff:41:eb:ae:d5:0f:d6:5b:5a:e2:f7:27:d2:ee:
                    f0:83:99:90:bd:86:f5:9f:5e:e7:5b:5a:9b:2b:ae:
                    4a:cc:81:67:09
                ASN1 OID: prime256v1
                NIST CURVE: P-256
        X509v3 extensions:
            X509v3 Basic Constraints: 
                CA:FALSE
    Signature Algorithm: ecdsa-with-SHA256
         30:45:02:21:00:fd:cf:f6:aa:40:79:d5:9c:53:a6:6b:fd:0e:
         fc:0a:e9:b4:42:93:38:81:d8:35:a9:28:46:c8:75:6a:0a:6d:
         4a:02:20:6c:ea:85:e8:f3:6f:34:6b:c9:3c:52:7d:cb:b4:57:
         81:8c:d6:b4:e2:b6:11:7d:29:dd:98:c6:a0:e5:2d:51:a0
-----BEGIN CERTIFICATE-----
MIIBJTCBzKADAgECAgIQBjAKBggqhkjOPQQDAjAWMRQwEgYDVQQDDAtzcm9zMnRl
c3RDQTAeFw0xODA2MDYyMTE5MjRaFw0yODA2MDMyMTE5MjRaMBMxETAPBgNVBAMM
CGxpc3RlbmVyMFkwEwYHKoZIzj0CAQYIKoZIzj0DAQcDQgAEHZyUPk/QfosKz+jX
qpQla/DgVLhuhs+8cRBVFOqi/0HrrtUP1lta4vcn0u7wg5mQvYb1n17nW1qbK65K
zIFnCaMNMAswCQYDVR0TBAIwADAKBggqhkjOPQQDAgNIADBFAiEA/c/2qkB51ZxT
pmv9DvwK6bRCkziB2DWpKEbIdWoKbUoCIGzqhejzbzRryTxSfcu0V4GM1rTithF9
Kd2YxqDlLVGg
-----END CERTIFICATE-----
