Certificate:
    Data:
        Version: 3 (0x2)
        Serial Number: 4106 (0x100a)
    Signature Algorithm: ecdsa-with-SHA256
        Issuer: CN=sros2testCA
        Validity
            Not Before: Jun 10 08:35:45 2018 GMT
            Not After : Jun  7 08:35:45 2028 GMT
        Subject: CN=talker_node
        Subject Public Key Info:
            Public Key Algorithm: id-ecPublicKey
                Public-Key: (256 bit)
                pub: 
                    04:2c:e0:39:b4:5c:da:97:ad:0f:be:f3:54:3a:4d:
                    e0:10:5e:5d:f1:22:44:6f:70:1a:f9:c6:bd:4f:31:
                    9b:9f:f9:6f:e0:46:f6:a9:0f:8c:53:b3:7f:5d:73:
                    84:93:82:71:1e:ab:bf:45:34:2e:83:f1:22:6d:36:
                    3a:93:93:d2:39
                ASN1 OID: prime256v1
                NIST CURVE: P-256
        X509v3 extensions:
            X509v3 Basic Constraints: 
                CA:FALSE
    Signature Algorithm: ecdsa-with-SHA256
         30:45:02:20:18:ee:4b:a6:59:e0:d2:e6:4e:29:9c:b5:5a:65:
         e7:67:e0:2a:16:9c:f1:77:cf:a3:73:db:84:cc:f5:f4:3b:95:
         02:21:00:91:dd:a8:e7:c1:93:2a:c8:12:9b:f9:90:46:d5:9a:
         7e:3f:9e:24:67:41:43:8c:b6:1a:7e:95:c0:c0:ab:97:3c
-----BEGIN CERTIFICATE-----
MIIBKDCBz6ADAgECAgIQCjAKBggqhkjOPQQDAjAWMRQwEgYDVQQDDAtzcm9zMnRl
c3RDQTAeFw0xODA2MTAwODM1NDVaFw0yODA2MDcwODM1NDVaMBYxFDASBgNVBAMM
C3RhbGtlcl9ub2RlMFkwEwYHKoZIzj0CAQYIKoZIzj0DAQcDQgAELOA5tFzal60P
vvNUOk3gEF5d8SJEb3Aa+ca9TzGbn/lv4Eb2qQ+MU7N/XXOEk4JxHqu/RTQug/Ei
bTY6k5PSOaMNMAswCQYDVR0TBAIwADAKBggqhkjOPQQDAgNIADBFAiAY7kumWeDS
5k4pnLVaZedn4CoWnPF3z6Nz24TM9fQ7lQIhAJHdqOfBkyrIEpv5kEbVmn4/niRn
QUOMthp+lcDAq5c8
-----END CERTIFICATE-----
