Certificate:
    Data:
        Version: 3 (0x2)
        Serial Number: 4108 (0x100c)
    Signature Algorithm: ecdsa-with-SHA256
        Issuer: CN=sros2testCA
        Validity
            Not Before: Jun 10 08:36:28 2018 GMT
            Not After : Jun  7 08:36:28 2028 GMT
        Subject: CN=listener_node
        Subject Public Key Info:
            Public Key Algorithm: id-ecPublicKey
                Public-Key: (256 bit)
                pub: 
                    04:7b:58:d3:5c:a1:c4:86:8c:6c:d7:6c:8e:f9:be:
                    be:d3:89:e7:9b:7e:7a:b2:9e:ad:65:01:1f:00:18:
                    c6:ab:71:6d:68:1e:6d:65:ee:dc:6b:61:07:97:10:
                    f0:85:36:c1:b6:40:3d:c0:b6:01:d9:67:96:fe:42:
                    fc:8e:20:1a:81
                ASN1 OID: prime256v1
                NIST CURVE: P-256
        X509v3 extensions:
            X509v3 Basic Constraints: 
                CA:FALSE
    Signature Algorithm: ecdsa-with-SHA256
         30:44:02:20:58:fd:80:17:3f:97:16:f3:de:f8:fc:96:71:01:
         6e:ca:e1:c4:a1:12:6c:ff:96:b3:d9:7a:ce:24:67:ba:da:a3:
         02:20:1b:2b:09:9f:99:03:dc:f9:3d:a4:57:34:5d:9f:92:d9:
         42:7b:37:22:ad:4a:09:16:68:cd:a8:4d:98:13:3e:d8
-----BEGIN CERTIFICATE-----
MIIBKTCB0aADAgECAgIQDDAKBggqhkjOPQQDAjAWMRQwEgYDVQQDDAtzcm9zMnRl
c3RDQTAeFw0xODA2MTAwODM2MjhaFw0yODA2MDcwODM2MjhaMBgxFjAUBgNVBAMM
DWxpc3RlbmVyX25vZGUwWTATBgcqhkjOPQIBBggqhkjOPQMBBwNCAAR7WNNcocSG
jGzXbI75vr7Tieebfnqynq1lAR8AGMarcW1oHm1l7txrYQeXEPCFNsG2QD3AtgHZ
Z5b+QvyOIBqBow0wCzAJBgNVHRMEAjAAMAoGCCqGSM49BAMCA0cAMEQCIFj9gBc/
lxbz3vj8lnEBbsrhxKESbP+Ws9l6ziRnutqjAiAbKwmfmQPc+T2kVzRdn5LZQns3
Iq1KCRZozahNmBM+2A==
-----END CERTIFICATE-----
